; Function Attrs: mustprogress uwtable
define zeroext i1 @Z3_is_app(ptr noundef %c, ptr noundef %a) local_unnamed_addr #3 personality ptr @__gxx_personality_v0 {
entry:
  %0 = atomicrmw xchg ptr @g_z3_log_enabled, i8 0 seq_cst, align 1
  %1 = and i8 %0, 1
  %tobool.i.not = icmp eq i8 %1, 0
  br i1 %tobool.i.not, label %if.end, label %if.then

if.then:                                          ; preds = %entry
  invoke void @_Z13log_Z3_is_appP11_Z3_contextP7_Z3_ast(ptr noundef %c, ptr noundef %a)
          to label %if.end unwind label %_ZN10z3_log_ctxD2Ev.exit

_ZN10z3_log_ctxD2Ev.exit:                         ; preds = %if.then
  %2 = landingpad { ptr, i32 }
          cleanup
  store atomic i8 1, ptr @g_z3_log_enabled seq_cst, align 1
  resume { ptr, i32 } %2

if.end:                                           ; preds = %if.then, %entry
  %m_error_code.i = getelementptr inbounds i8, ptr %c, i64 1560
  store i32 0, ptr %m_error_code.i, align 8
  %cmp.not = icmp eq ptr %a, null
  br i1 %cmp.not, label %land.end, label %land.rhs

land.rhs:                                         ; preds = %if.end
  %m_kind.i.i = getelementptr inbounds i8, ptr %a, i64 4
  %bf.load.i.i = load i32, ptr %m_kind.i.i, align 4
  %bf.clear.i.i = and i32 %bf.load.i.i, 65535
  %cmp.i = icmp eq i32 %bf.clear.i.i, 0
  br label %land.end

land.end:                                         ; preds = %land.rhs, %if.end
  %3 = phi i1 [ false, %if.end ], [ %cmp.i, %land.rhs ]
  br i1 %tobool.i.not, label %_ZN10z3_log_ctxD2Ev.exit6, label %if.then.i5

if.then.i5:                                       ; preds = %land.end
  store atomic i8 1, ptr @g_z3_log_enabled seq_cst, align 1
  br label %_ZN10z3_log_ctxD2Ev.exit6

_ZN10z3_log_ctxD2Ev.exit6:                        ; preds = %land.end, %if.then.i5
  ret i1 %3
}